; Function Attrs: nounwind uwtable
define internal fastcc range(i32 -1, 1) i32 @_unpack_roll_usage_msg(ptr noundef writeonly captures(none) initializes((0, 8)) %0, i16 noundef zeroext %1, ptr noundef %2) unnamed_addr #0 {
  %4 = tail call ptr @slurm_xcalloc(i64 noundef 1, i64 noundef 24, i1 noundef zeroext true, i1 noundef zeroext false, ptr noundef nonnull @.str, i32 noundef 1142, ptr noundef nonnull @__func__._unpack_roll_usage_msg) #5
  store ptr %4, ptr %0, align 8
  %5 = icmp ugt i16 %1, 10239
  br i1 %5, label %6, label %15

6:                                                ; preds = %3
  %7 = tail call i32 @unpack16(ptr noundef %4, ptr noundef %2) #5
  %.not = icmp eq i32 %7, 0
  br i1 %.not, label %8, label %14

8:                                                ; preds = %6
  %9 = getelementptr inbounds nuw i8, ptr %4, i64 8
  %10 = tail call i32 @unpack_time(ptr noundef nonnull %9, ptr noundef %2) #5
  %.not11 = icmp eq i32 %10, 0
  br i1 %.not11, label %11, label %14

11:                                               ; preds = %8
  %12 = getelementptr inbounds nuw i8, ptr %4, i64 16
  %13 = tail call i32 @unpack_time(ptr noundef nonnull %12, ptr noundef %2) #5
  %.not12 = icmp eq i32 %13, 0
  br i1 %.not12, label %15, label %14

14:                                               ; preds = %11, %8, %6
  tail call void @slurmdbd_free_roll_usage_msg(ptr noundef %4) #5
  store ptr null, ptr %0, align 8
  br label %15

15:                                               ; preds = %3, %11, %14
  %.0 = phi i32 [ -1, %14 ], [ 0, %11 ], [ 0, %3 ]
  ret i32 %.0
}